target datalayout = "e-m:e-p270:32:32-p271:32:32-p272:64:64-i64:64-i128:128-f80:128-n8:16:32:64-S128"
target triple = "x86_64-pc-linux-gnu"

%struct.H5T_t = type { %struct.H5O_shared_t, ptr, %struct.H5O_loc_t, %struct.H5G_name_t, ptr }
%struct.H5O_shared_t = type { i32, ptr, i32, %union.anon }
%union.anon = type { %struct.H5O_mesg_loc_t }
%struct.H5O_mesg_loc_t = type { i32, i64 }
%struct.H5O_loc_t = type { ptr, i64, i8 }
%struct.H5G_name_t = type { ptr, ptr, i32 }
%struct.H5T_shared_t = type { i64, i32, i32, i64, i32, i8, ptr, ptr, %union.anon.0 }
%union.anon.0 = type { %struct.H5T_array_t }
%struct.H5T_array_t = type { i64, i32, [32 x i64] }
%struct.H5T_compnd_t = type { i32, i32, i32, i8, ptr, i64 }
%struct.H5T_enum_t = type { i32, i32, i32, ptr, ptr }
%struct.H5T_cmemb_t = type { ptr, i64, i64, ptr }

@H5_libinit_g = external global i8, align 1
@H5_libterm_g = external global i8, align 1
@.str = private unnamed_addr constant [103 x i8] c"generated/home/dtcxzyw/WorkSpace/Projects/compilers/llvm-opt-benchmark/bench/hdf5/hdf5/src/H5Tfields.c\00", align 1
@H5E_FUNC_g = external global i64, align 8
@H5E_CANTINIT_g = external global i64, align 8
@.str.1 = private unnamed_addr constant [30 x i8] c"library initialization failed\00", align 1
@H5E_CANTSET_g = external global i64, align 8
@.str.2 = private unnamed_addr constant [22 x i8] c"can't set API context\00", align 1
@H5E_ARGS_g = external global i64, align 8
@H5E_BADTYPE_g = external global i64, align 8
@.str.3 = private unnamed_addr constant [15 x i8] c"not a datatype\00", align 1
@__func__.H5Tget_member_index = private unnamed_addr constant [20 x i8] c"H5Tget_member_index\00", align 1
@.str.8 = private unnamed_addr constant [38 x i8] c"operation not supported for this type\00", align 1

; Function Attrs: nounwind uwtable
define i32 @H5Tget_member_index(i64 noundef %0, ptr noundef %1) #0 {
  %3 = alloca i64, align 8
  %4 = alloca ptr, align 8
  %5 = alloca ptr, align 8
  %6 = alloca i32, align 4
  %7 = alloca i32, align 4
  %8 = alloca i8, align 1
  %9 = alloca i8, align 1
  store i64 %0, ptr %3, align 8
  store ptr %1, ptr %4, align 8
  store ptr null, ptr %5, align 8
  store i32 -1, ptr %6, align 4
  store i8 0, ptr %8, align 1
  store i8 0, ptr %9, align 1
  %10 = load i8, ptr @H5_libinit_g, align 1
  %11 = trunc i8 %10 to i1
  br i1 %11, label %16, label %12

12:                                               ; preds = %2
  %13 = load i8, ptr @H5_libterm_g, align 1
  %14 = trunc i8 %13 to i1
  %15 = xor i1 %14, true
  br label %16

16:                                               ; preds = %12, %2
  %17 = phi i1 [ false, %2 ], [ %15, %12 ]
  %18 = xor i1 %17, true
  %19 = xor i1 %18, true
  %20 = zext i1 %19 to i32
  %21 = sext i32 %20 to i64
  %22 = icmp ne i64 %21, 0
  br i1 %22, label %23, label %47

23:                                               ; preds = %16
  %24 = call i32 @H5_init_library()
  %25 = icmp slt i32 %24, 0
  %26 = xor i1 %25, true
  %27 = xor i1 %26, true
  %28 = zext i1 %27 to i32
  %29 = sext i32 %28 to i64
  %30 = icmp ne i64 %29, 0
  br i1 %30, label %31, label %46

31:                                               ; preds = %23
  br label %32

32:                                               ; preds = %31
  br label %33

33:                                               ; preds = %32
  br label %34

34:                                               ; preds = %33
  %35 = load i64, ptr @H5E_FUNC_g, align 8
  %36 = load i64, ptr @H5E_CANTINIT_g, align 8
  %37 = call i32 (ptr, ptr, i32, i64, i64, ptr, ...) @H5E_printf_stack(ptr noundef @.str, ptr noundef @__func__.H5Tget_member_index, i32 noundef 204, i64 noundef %35, i64 noundef %36, ptr noundef @.str.1)
  br label %38

38:                                               ; preds = %34
  store i8 1, ptr %9, align 1
  %39 = load i8, ptr %9, align 1
  %40 = trunc i8 %39 to i1
  %41 = zext i1 %40 to i8
  store i8 %41, ptr %9, align 1
  br label %42

42:                                               ; preds = %38
  br label %43

43:                                               ; preds = %42
  store i32 -1, ptr %6, align 4
  br label %181

44:                                               ; No predecessors!
  br label %45

45:                                               ; preds = %44
  br label %46

46:                                               ; preds = %45, %23
  br label %47

47:                                               ; preds = %46, %16
  %48 = call i32 @H5CX_push()
  %49 = icmp slt i32 %48, 0
  %50 = xor i1 %49, true
  %51 = xor i1 %50, true
  %52 = zext i1 %51 to i32
  %53 = sext i32 %52 to i64
  %54 = icmp ne i64 %53, 0
  br i1 %54, label %55, label %70

55:                                               ; preds = %47
  br label %56

56:                                               ; preds = %55
  br label %57

57:                                               ; preds = %56
  br label %58

58:                                               ; preds = %57
  %59 = load i64, ptr @H5E_FUNC_g, align 8
  %60 = load i64, ptr @H5E_CANTSET_g, align 8
  %61 = call i32 (ptr, ptr, i32, i64, i64, ptr, ...) @H5E_printf_stack(ptr noundef @.str, ptr noundef @__func__.H5Tget_member_index, i32 noundef 204, i64 noundef %59, i64 noundef %60, ptr noundef @.str.2)
  br label %62

62:                                               ; preds = %58
  store i8 1, ptr %9, align 1
  %63 = load i8, ptr %9, align 1
  %64 = trunc i8 %63 to i1
  %65 = zext i1 %64 to i8
  store i8 %65, ptr %9, align 1
  br label %66

66:                                               ; preds = %62
  br label %67

67:                                               ; preds = %66
  store i32 -1, ptr %6, align 4
  br label %181

68:                                               ; No predecessors!
  br label %69

69:                                               ; preds = %68
  br label %71

70:                                               ; preds = %47
  store i8 1, ptr %8, align 1
  br label %71

71:                                               ; preds = %70, %69
  %72 = call i32 @H5E_clear_stack()
  %73 = load i64, ptr %3, align 8
  %74 = call ptr @H5I_object_verify(i64 noundef %73, i32 noundef 3)
  store ptr %74, ptr %5, align 8
  %75 = icmp eq ptr null, %74
  br i1 %75, label %76, label %91

76:                                               ; preds = %71
  br label %77

77:                                               ; preds = %76
  br label %78

78:                                               ; preds = %77
  br label %79

79:                                               ; preds = %78
  %80 = load i64, ptr @H5E_ARGS_g, align 8
  %81 = load i64, ptr @H5E_BADTYPE_g, align 8
  %82 = call i32 (ptr, ptr, i32, i64, i64, ptr, ...) @H5E_printf_stack(ptr noundef @.str, ptr noundef @__func__.H5Tget_member_index, i32 noundef 209, i64 noundef %80, i64 noundef %81, ptr noundef @.str.3)
  br label %83

83:                                               ; preds = %79
  store i8 1, ptr %9, align 1
  %84 = load i8, ptr %9, align 1
  %85 = trunc i8 %84 to i1
  %86 = zext i1 %85 to i8
  store i8 %86, ptr %9, align 1
  br label %87

87:                                               ; preds = %83
  br label %88

88:                                               ; preds = %87
  store i32 -1, ptr %6, align 4
  br label %181

89:                                               ; No predecessors!
  br label %90

90:                                               ; preds = %89
  br label %91

91:                                               ; preds = %90, %71
  %92 = load ptr, ptr %5, align 8
  %93 = getelementptr inbounds %struct.H5T_t, ptr %92, i32 0, i32 1
  %94 = load ptr, ptr %93, align 8
  %95 = getelementptr inbounds %struct.H5T_shared_t, ptr %94, i32 0, i32 2
  %96 = load i32, ptr %95, align 4
  switch i32 %96, label %165 [
    i32 6, label %97
    i32 8, label %131
    i32 -1, label %164
    i32 0, label %164
    i32 1, label %164
    i32 2, label %164
    i32 3, label %164
    i32 4, label %164
    i32 5, label %164
    i32 7, label %164
    i32 9, label %164
    i32 10, label %164
    i32 11, label %164
  ]

97:                                               ; preds = %91
  store i32 0, ptr %7, align 4
  br label %98

98:                                               ; preds = %127, %97
  %99 = load i32, ptr %7, align 4
  %100 = load ptr, ptr %5, align 8
  %101 = getelementptr inbounds %struct.H5T_t, ptr %100, i32 0, i32 1
  %102 = load ptr, ptr %101, align 8
  %103 = getelementptr inbounds %struct.H5T_shared_t, ptr %102, i32 0, i32 8
  %104 = getelementptr inbounds %struct.H5T_compnd_t, ptr %103, i32 0, i32 1
  %105 = load i32, ptr %104, align 4
  %106 = icmp ult i32 %99, %105
  br i1 %106, label %107, label %130

107:                                              ; preds = %98
  %108 = load ptr, ptr %5, align 8
  %109 = getelementptr inbounds %struct.H5T_t, ptr %108, i32 0, i32 1
  %110 = load ptr, ptr %109, align 8
  %111 = getelementptr inbounds %struct.H5T_shared_t, ptr %110, i32 0, i32 8
  %112 = getelementptr inbounds %struct.H5T_compnd_t, ptr %111, i32 0, i32 4
  %113 = load ptr, ptr %112, align 8
  %114 = load i32, ptr %7, align 4
  %115 = zext i32 %114 to i64
  %116 = getelementptr inbounds %struct.H5T_cmemb_t, ptr %113, i64 %115
  %117 = getelementptr inbounds %struct.H5T_cmemb_t, ptr %116, i32 0, i32 0
  %118 = load ptr, ptr %117, align 8
  %119 = load ptr, ptr %4, align 8
  %120 = call i32 @strcmp(ptr noundef %118, ptr noundef %119) #4
  %121 = icmp ne i32 %120, 0
  br i1 %121, label %126, label %122

122:                                              ; preds = %107
  br label %123

123:                                              ; preds = %122
  %124 = load i32, ptr %7, align 4
  store i32 %124, ptr %6, align 4
  br label %181

125:                                              ; No predecessors!
  br label %126

126:                                              ; preds = %125, %107
  br label %127

127:                                              ; preds = %126
  %128 = load i32, ptr %7, align 4
  %129 = add i32 %128, 1
  store i32 %129, ptr %7, align 4
  br label %98

130:                                              ; preds = %98
  br label %180

131:                                              ; preds = %91
  store i32 0, ptr %7, align 4
  br label %132

132:                                              ; preds = %160, %131
  %133 = load i32, ptr %7, align 4
  %134 = load ptr, ptr %5, align 8
  %135 = getelementptr inbounds %struct.H5T_t, ptr %134, i32 0, i32 1
  %136 = load ptr, ptr %135, align 8
  %137 = getelementptr inbounds %struct.H5T_shared_t, ptr %136, i32 0, i32 8
  %138 = getelementptr inbounds %struct.H5T_enum_t, ptr %137, i32 0, i32 1
  %139 = load i32, ptr %138, align 4
  %140 = icmp ult i32 %133, %139
  br i1 %140, label %141, label %163

141:                                              ; preds = %132
  %142 = load ptr, ptr %5, align 8
  %143 = getelementptr inbounds %struct.H5T_t, ptr %142, i32 0, i32 1
  %144 = load ptr, ptr %143, align 8
  %145 = getelementptr inbounds %struct.H5T_shared_t, ptr %144, i32 0, i32 8
  %146 = getelementptr inbounds %struct.H5T_enum_t, ptr %145, i32 0, i32 4
  %147 = load ptr, ptr %146, align 8
  %148 = load i32, ptr %7, align 4
  %149 = zext i32 %148 to i64
  %150 = getelementptr inbounds ptr, ptr %147, i64 %149
  %151 = load ptr, ptr %150, align 8
  %152 = load ptr, ptr %4, align 8
  %153 = call i32 @strcmp(ptr noundef %151, ptr noundef %152) #4
  %154 = icmp ne i32 %153, 0
  br i1 %154, label %159, label %155

155:                                              ; preds = %141
  br label %156

156:                                              ; preds = %155
  %157 = load i32, ptr %7, align 4
  store i32 %157, ptr %6, align 4
  br label %181

158:                                              ; No predecessors!
  br label %159

159:                                              ; preds = %158, %141
  br label %160

160:                                              ; preds = %159
  %161 = load i32, ptr %7, align 4
  %162 = add i32 %161, 1
  store i32 %162, ptr %7, align 4
  br label %132

163:                                              ; preds = %132
  br label %180

164:                                              ; preds = %91, %91, %91, %91, %91, %91, %91, %91, %91, %91, %91
  br label %165

165:                                              ; preds = %164, %91
  br label %166

166:                                              ; preds = %165
  br label %167

167:                                              ; preds = %166
  br label %168

168:                                              ; preds = %167
  %169 = load i64, ptr @H5E_ARGS_g, align 8
  %170 = load i64, ptr @H5E_BADTYPE_g, align 8
  %171 = call i32 (ptr, ptr, i32, i64, i64, ptr, ...) @H5E_printf_stack(ptr noundef @.str, ptr noundef @__func__.H5Tget_member_index, i32 noundef 236, i64 noundef %169, i64 noundef %170, ptr noundef @.str.8)
  br label %172

172:                                              ; preds = %168
  store i8 1, ptr %9, align 1
  %173 = load i8, ptr %9, align 1
  %174 = trunc i8 %173 to i1
  %175 = zext i1 %174 to i8
  store i8 %175, ptr %9, align 1
  br label %176

176:                                              ; preds = %172
  br label %177

177:                                              ; preds = %176
  store i32 -1, ptr %6, align 4
  br label %181

178:                                              ; No predecessors!
  br label %179

179:                                              ; preds = %178
  br label %180

180:                                              ; preds = %179, %163, %130
  br label %181

181:                                              ; preds = %180, %177, %156, %123, %88, %67, %43
  %182 = load i8, ptr %8, align 1
  %183 = trunc i8 %182 to i1
  %184 = xor i1 %183, true
  %185 = xor i1 %184, true
  %186 = zext i1 %185 to i32
  %187 = sext i32 %186 to i64
  %188 = icmp ne i64 %187, 0
  br i1 %188, label %189, label %191

189:                                              ; preds = %181
  %190 = call i32 @H5CX_pop(i1 noundef zeroext true)
  store i8 0, ptr %8, align 1
  br label %191

191:                                              ; preds = %189, %181
  %192 = load i8, ptr %9, align 1
  %193 = trunc i8 %192 to i1
  %194 = xor i1 %193, true
  %195 = xor i1 %194, true
  %196 = zext i1 %195 to i32
  %197 = sext i32 %196 to i64
  %198 = icmp ne i64 %197, 0
  br i1 %198, label %199, label %201

199:                                              ; preds = %191
  %200 = call i32 @H5E_dump_api_stack()
  br label %201

201:                                              ; preds = %199, %191
  %202 = load i32, ptr %6, align 4
  ret i32 %202
}