; Function Attrs: nounwind uwtable
define i32 @H5Tget_member_index(i64 noundef %0, ptr noundef readonly captures(none) %1) local_unnamed_addr #0 {
  %3 = load i8, ptr @H5_libinit_g, align 1
  %4 = trunc i8 %3 to i1
  %5 = load i8, ptr @H5_libterm_g, align 1
  %6 = trunc i8 %5 to i1
  %7 = select i1 %4, i1 true, i1 %6
  br i1 %7, label %15, label %8

8:                                                ; preds = %2
  %9 = tail call i32 @H5_init_library() #5
  %10 = icmp slt i32 %9, 0
  br i1 %10, label %11, label %15

11:                                               ; preds = %8
  %12 = load i64, ptr @H5E_FUNC_g, align 8
  %13 = load i64, ptr @H5E_CANTINIT_g, align 8
  %14 = tail call i32 (ptr, ptr, i32, i64, i64, ptr, ...) @H5E_printf_stack(ptr noundef nonnull @.str, ptr noundef nonnull @__func__.H5Tget_member_index, i32 noundef 204, i64 noundef %12, i64 noundef %13, ptr noundef nonnull @.str.1) #5
  br label %.thread35

15:                                               ; preds = %8, %2
  %16 = tail call i32 @H5CX_push() #5
  %17 = icmp slt i32 %16, 0
  br i1 %17, label %18, label %22

18:                                               ; preds = %15
  %19 = load i64, ptr @H5E_FUNC_g, align 8
  %20 = load i64, ptr @H5E_CANTSET_g, align 8
  %21 = tail call i32 (ptr, ptr, i32, i64, i64, ptr, ...) @H5E_printf_stack(ptr noundef nonnull @.str, ptr noundef nonnull @__func__.H5Tget_member_index, i32 noundef 204, i64 noundef %19, i64 noundef %20, ptr noundef nonnull @.str.2) #5
  br label %.thread35

22:                                               ; preds = %15
  %23 = tail call i32 @H5E_clear_stack() #5
  %24 = tail call ptr @H5I_object_verify(i64 noundef %0, i32 noundef 3) #5
  %25 = icmp eq ptr %24, null
  br i1 %25, label %26, label %30

26:                                               ; preds = %22
  %27 = load i64, ptr @H5E_ARGS_g, align 8
  %28 = load i64, ptr @H5E_BADTYPE_g, align 8
  %29 = tail call i32 (ptr, ptr, i32, i64, i64, ptr, ...) @H5E_printf_stack(ptr noundef nonnull @.str, ptr noundef nonnull @__func__.H5Tget_member_index, i32 noundef 209, i64 noundef %27, i64 noundef %28, ptr noundef nonnull @.str.3) #5
  br label %60

30:                                               ; preds = %22
  %31 = getelementptr inbounds nuw i8, ptr %24, i64 40
  %32 = load ptr, ptr %31, align 8
  %33 = getelementptr inbounds nuw i8, ptr %32, i64 12
  %34 = load i32, ptr %33, align 4
  switch i32 %34, label %53 [
    i32 6, label %.preheader
    i32 8, label %.preheader44
  ]

.preheader44:                                     ; preds = %30
  %35 = getelementptr inbounds nuw i8, ptr %32, i64 52
  %36 = load i32, ptr %35, align 4
  %.not55 = icmp eq i32 %36, 0
  br i1 %.not55, label %.thread41, label %.lr.ph

.lr.ph:                                           ; preds = %.preheader44
  %37 = getelementptr inbounds nuw i8, ptr %32, i64 72
  %38 = load ptr, ptr %37, align 8
  %wide.trip.count = zext i32 %36 to i64
  br label %48

.preheader:                                       ; preds = %30
  %39 = getelementptr inbounds nuw i8, ptr %32, i64 52
  %40 = load i32, ptr %39, align 4
  %.not56 = icmp eq i32 %40, 0
  br i1 %.not56, label %.thread41, label %.lr.ph51

.lr.ph51:                                         ; preds = %.preheader
  %41 = getelementptr inbounds nuw i8, ptr %32, i64 64
  %42 = load ptr, ptr %41, align 8
  %wide.trip.count63 = zext i32 %40 to i64
  br label %43

43:                                               ; preds = %.lr.ph51, %47
  %indvars.iv60 = phi i64 [ 0, %.lr.ph51 ], [ %indvars.iv.next61, %47 ]
  %44 = getelementptr inbounds nuw %struct.H5T_cmemb_t, ptr %42, i64 %indvars.iv60
  %45 = load ptr, ptr %44, align 8
  %46 = tail call i32 @strcmp(ptr noundef nonnull dereferenceable(1) %45, ptr noundef nonnull dereferenceable(1) %1) #6
  %.not26 = icmp eq i32 %46, 0
  br i1 %.not26, label %.thread41.loopexit.split.loop.exit, label %47

47:                                               ; preds = %43
  %indvars.iv.next61 = add nuw nsw i64 %indvars.iv60, 1
  %exitcond64.not = icmp eq i64 %indvars.iv.next61, %wide.trip.count63
  br i1 %exitcond64.not, label %.thread41, label %43

48:                                               ; preds = %.lr.ph, %52
  %indvars.iv = phi i64 [ 0, %.lr.ph ], [ %indvars.iv.next, %52 ]
  %49 = getelementptr inbounds nuw ptr, ptr %38, i64 %indvars.iv
  %50 = load ptr, ptr %49, align 8
  %51 = tail call i32 @strcmp(ptr noundef nonnull dereferenceable(1) %50, ptr noundef nonnull dereferenceable(1) %1) #6
  %.not = icmp eq i32 %51, 0
  br i1 %.not, label %.thread41.loopexit65.split.loop.exit, label %52

52:                                               ; preds = %48
  %indvars.iv.next = add nuw nsw i64 %indvars.iv, 1
  %exitcond.not = icmp eq i64 %indvars.iv.next, %wide.trip.count
  br i1 %exitcond.not, label %.thread41, label %48

53:                                               ; preds = %30
  %54 = load i64, ptr @H5E_ARGS_g, align 8
  %55 = load i64, ptr @H5E_BADTYPE_g, align 8
  %56 = tail call i32 (ptr, ptr, i32, i64, i64, ptr, ...) @H5E_printf_stack(ptr noundef nonnull @.str, ptr noundef nonnull @__func__.H5Tget_member_index, i32 noundef 236, i64 noundef %54, i64 noundef %55, ptr noundef nonnull @.str.8) #5
  br label %60

.thread41.loopexit.split.loop.exit:               ; preds = %43
  %57 = trunc nuw i64 %indvars.iv60 to i32
  br label %.thread41

.thread41.loopexit65.split.loop.exit:             ; preds = %48
  %58 = trunc nuw i64 %indvars.iv to i32
  br label %.thread41

.thread41:                                        ; preds = %52, %47, %.thread41.loopexit65.split.loop.exit, %.thread41.loopexit.split.loop.exit, %.preheader44, %.preheader
  %.024.ph.ph = phi i32 [ -1, %.preheader ], [ -1, %.preheader44 ], [ %57, %.thread41.loopexit.split.loop.exit ], [ %58, %.thread41.loopexit65.split.loop.exit ], [ -1, %47 ], [ -1, %52 ]
  %59 = tail call i32 @H5CX_pop(i1 noundef zeroext true) #5
  br label %63

60:                                               ; preds = %53, %26
  %61 = tail call i32 @H5CX_pop(i1 noundef zeroext true) #5
  br label %.thread35

.thread35:                                        ; preds = %18, %11, %60
  %62 = tail call i32 @H5E_dump_api_stack() #5
  br label %63

63:                                               ; preds = %.thread41, %.thread35
  %.0243038 = phi i32 [ -1, %.thread35 ], [ %.024.ph.ph, %.thread41 ]
  ret i32 %.0243038
}